; Function Attrs: mustprogress nounwind uwtable
define dso_local void @_ZN4node20SigintWatchdogHelperC2Ev(ptr noundef nonnull align 8 dereferenceable(162) %this) unnamed_addr #3 align 2 {
entry:
  store i32 0, ptr %this, align 8
  %mutex_ = getelementptr inbounds i8, ptr %this, i64 8
  %call.i.i = tail call noundef i32 @uv_mutex_init(ptr noundef nonnull %mutex_) #15
  %cmp.not.i = icmp eq i32 %call.i.i, 0
  br i1 %cmp.not.i, label %_ZN4node9MutexBaseINS_16LibuvMutexTraitsEEC2Ev.exit, label %do.body5.i

do.body5.i:                                       ; preds = %entry
  tail call void @_ZN4node6AssertERKNS_13AssertionInfoE(ptr noundef nonnull align 8 dereferenceable(24) @_ZZN4node9MutexBaseINS_16LibuvMutexTraitsEEC1EvE4args) #15
  tail call void @abort() #16
  unreachable

_ZN4node9MutexBaseINS_16LibuvMutexTraitsEEC2Ev.exit: ; preds = %entry
  %list_mutex_ = getelementptr inbounds i8, ptr %this, i64 48
  %call.i.i1 = tail call noundef i32 @uv_mutex_init(ptr noundef nonnull %list_mutex_) #15
  %cmp.not.i2 = icmp eq i32 %call.i.i1, 0
  br i1 %cmp.not.i2, label %_ZN4node9MutexBaseINS_16LibuvMutexTraitsEEC2Ev.exit4, label %do.body5.i3

do.body5.i3:                                      ; preds = %_ZN4node9MutexBaseINS_16LibuvMutexTraitsEEC2Ev.exit
  tail call void @_ZN4node6AssertERKNS_13AssertionInfoE(ptr noundef nonnull align 8 dereferenceable(24) @_ZZN4node9MutexBaseINS_16LibuvMutexTraitsEEC1EvE4args) #15
  tail call void @abort() #16
  unreachable

_ZN4node9MutexBaseINS_16LibuvMutexTraitsEEC2Ev.exit4: ; preds = %_ZN4node9MutexBaseINS_16LibuvMutexTraitsEEC2Ev.exit
  %watchdogs_ = getelementptr inbounds i8, ptr %this, i64 88
  %has_running_thread_ = getelementptr inbounds i8, ptr %this, i64 160
  store i8 0, ptr %has_running_thread_, align 8
  %stopping_ = getelementptr inbounds i8, ptr %this, i64 161
  store i8 0, ptr %stopping_, align 1
  %sem_2 = getelementptr inbounds i8, ptr %this, i64 128
  tail call void @llvm.memset.p0.i64(ptr noundef nonnull align 8 dereferenceable(25) %watchdogs_, i8 0, i64 25, i1 false)
  %call = tail call i32 @uv_sem_init(ptr noundef nonnull %sem_2, i32 noundef 0) #15
  %cmp.not = icmp eq i32 %call, 0
  br i1 %cmp.not, label %do.end6, label %do.body5

do.body5:                                         ; preds = %_ZN4node9MutexBaseINS_16LibuvMutexTraitsEEC2Ev.exit4
  tail call void @_ZN4node6AssertERKNS_13AssertionInfoE(ptr noundef nonnull align 8 dereferenceable(24) @_ZZN4node20SigintWatchdogHelperC1EvE4args) #15
  tail call void @abort() #16
  unreachable

do.end6:                                          ; preds = %_ZN4node9MutexBaseINS_16LibuvMutexTraitsEEC2Ev.exit4
  ret void
}